; Function Attrs: nounwind uwtable
define range(i32 0, 2) i32 @Extra_bddCheckVarsSymmetric(ptr noundef %0, ptr noundef %1, i32 noundef %2, i32 noundef %3) local_unnamed_addr #0 {
  %5 = getelementptr inbounds nuw i8, ptr %0, i64 344
  %6 = load ptr, ptr %5, align 8, !tbaa !57
  %7 = sext i32 %2 to i64
  %8 = getelementptr inbounds ptr, ptr %6, i64 %7
  %9 = load ptr, ptr %8, align 8, !tbaa !58
  %10 = sext i32 %3 to i64
  %11 = getelementptr inbounds ptr, ptr %6, i64 %10
  %12 = load ptr, ptr %11, align 8, !tbaa !58
  %13 = tail call ptr @Cudd_bddAnd(ptr noundef %0, ptr noundef %9, ptr noundef %12) #10
  tail call void @Cudd_Ref(ptr noundef %13) #10
  %14 = tail call ptr @extraBddCheckVarsSymmetric(ptr noundef %0, ptr noundef %1, ptr noundef %13)
  %15 = getelementptr inbounds nuw i8, ptr %0, i64 40
  %16 = load ptr, ptr %15, align 8, !tbaa !35
  %17 = icmp eq ptr %14, %16
  %18 = zext i1 %17 to i32
  tail call void @Cudd_RecursiveDeref(ptr noundef %0, ptr noundef %13) #10
  ret i32 %18
}